target datalayout = "e-m:e-p270:32:32-p271:32:32-p272:64:64-i64:64-i128:128-f80:128-n8:16:32:64-S128"
target triple = "x86_64-pc-linux-gnu"

%struct.Curl_ssl = type { %struct.curl_ssl_backend, i32, i64, ptr, ptr, ptr, ptr, ptr, ptr, ptr, ptr, ptr, ptr, ptr, ptr, ptr, ptr, ptr, ptr, ptr, ptr, ptr, ptr, ptr, ptr, ptr, ptr, ptr }
%struct.curl_ssl_backend = type { i32, ptr }
%struct.Curl_cftype = type { ptr, i32, i32, ptr, ptr, ptr, ptr, ptr, ptr, ptr, ptr, ptr, ptr, ptr, ptr }
%struct.curltime = type { i64, i32 }
%struct.Curl_cfilter = type { ptr, ptr, ptr, ptr, i32, i8 }
%struct.ssl_connect_data = type { i32, i32, %struct.ssl_peer, ptr, ptr, %struct.cf_call_data, %struct.curltime, i32, i8 }
%struct.ssl_peer = type { ptr, ptr, ptr, i8 }
%struct.cf_call_data = type { ptr }

@Curl_ssl = dso_local global ptr @Curl_ssl_openssl, align 8
@Curl_cfree = external global ptr, align 8

; Function Attrs: nounwind uwtable
define dso_local void @Curl_ssl_peer_cleanup(ptr noundef %0) #0 {
  %2 = alloca ptr, align 8
  store ptr %0, ptr %2, align 8
  %3 = load ptr, ptr %2, align 8
  %4 = getelementptr inbounds %struct.ssl_peer, ptr %3, i32 0, i32 1
  %5 = load ptr, ptr %4, align 8
  %6 = load ptr, ptr %2, align 8
  %7 = getelementptr inbounds %struct.ssl_peer, ptr %6, i32 0, i32 0
  %8 = load ptr, ptr %7, align 8
  %9 = icmp ne ptr %5, %8
  br i1 %9, label %10, label %15

10:                                               ; preds = %1
  %11 = load ptr, ptr @Curl_cfree, align 8
  %12 = load ptr, ptr %2, align 8
  %13 = getelementptr inbounds %struct.ssl_peer, ptr %12, i32 0, i32 1
  %14 = load ptr, ptr %13, align 8
  call void %11(ptr noundef %14)
  br label %15

15:                                               ; preds = %10, %1
  %16 = load ptr, ptr @Curl_cfree, align 8
  %17 = load ptr, ptr %2, align 8
  %18 = getelementptr inbounds %struct.ssl_peer, ptr %17, i32 0, i32 2
  %19 = load ptr, ptr %18, align 8
  call void %16(ptr noundef %19)
  %20 = load ptr, ptr @Curl_cfree, align 8
  %21 = load ptr, ptr %2, align 8
  %22 = getelementptr inbounds %struct.ssl_peer, ptr %21, i32 0, i32 0
  %23 = load ptr, ptr %22, align 8
  call void %20(ptr noundef %23)
  %24 = load ptr, ptr %2, align 8
  %25 = getelementptr inbounds %struct.ssl_peer, ptr %24, i32 0, i32 1
  store ptr null, ptr %25, align 8
  %26 = load ptr, ptr %2, align 8
  %27 = getelementptr inbounds %struct.ssl_peer, ptr %26, i32 0, i32 2
  store ptr null, ptr %27, align 8
  %28 = load ptr, ptr %2, align 8
  %29 = getelementptr inbounds %struct.ssl_peer, ptr %28, i32 0, i32 0
  store ptr null, ptr %29, align 8
  %30 = load ptr, ptr %2, align 8
  %31 = getelementptr inbounds %struct.ssl_peer, ptr %30, i32 0, i32 3
  %32 = load i8, ptr %31, align 8
  %33 = and i8 %32, -2
  %34 = or i8 %33, 0
  store i8 %34, ptr %31, align 8
  ret void
}

; Function Attrs: nounwind uwtable
define internal void @cf_close(ptr noundef %0, ptr noundef %1) #0 {
  %3 = alloca ptr, align 8
  %4 = alloca ptr, align 8
  %5 = alloca ptr, align 8
  store ptr %0, ptr %3, align 8
  store ptr %1, ptr %4, align 8
  %6 = load ptr, ptr %3, align 8
  %7 = getelementptr inbounds %struct.Curl_cfilter, ptr %6, i32 0, i32 2
  %8 = load ptr, ptr %7, align 8
  store ptr %8, ptr %5, align 8
  %9 = load ptr, ptr %5, align 8
  %10 = icmp ne ptr %9, null
  br i1 %10, label %11, label %21

11:                                               ; preds = %2
  %12 = load ptr, ptr @Curl_ssl, align 8
  %13 = getelementptr inbounds %struct.Curl_ssl, ptr %12, i32 0, i32 15
  %14 = load ptr, ptr %13, align 8
  %15 = load ptr, ptr %3, align 8
  %16 = load ptr, ptr %4, align 8
  call void %14(ptr noundef %15, ptr noundef %16)
  %17 = load ptr, ptr %5, align 8
  %18 = getelementptr inbounds %struct.ssl_connect_data, ptr %17, i32 0, i32 0
  store i32 0, ptr %18, align 8
  %19 = load ptr, ptr %5, align 8
  %20 = getelementptr inbounds %struct.ssl_connect_data, ptr %19, i32 0, i32 2
  call void @Curl_ssl_peer_cleanup(ptr noundef %20)
  br label %21

21:                                               ; preds = %11, %2
  %22 = load ptr, ptr %3, align 8
  %23 = getelementptr inbounds %struct.Curl_cfilter, ptr %22, i32 0, i32 5
  %24 = load i8, ptr %23, align 4
  %25 = and i8 %24, -2
  %26 = or i8 %25, 0
  store i8 %26, ptr %23, align 4
  ret void
}

; Function Attrs: nounwind uwtable
define internal void @ssl_cf_close(ptr noundef %0, ptr noundef %1) #0 {
  %3 = alloca ptr, align 8
  %4 = alloca ptr, align 8
  %5 = alloca %struct.cf_call_data, align 8
  store ptr %0, ptr %3, align 8
  store ptr %1, ptr %4, align 8
  br label %6

6:                                                ; preds = %2
  %7 = load ptr, ptr %3, align 8
  %8 = getelementptr inbounds %struct.Curl_cfilter, ptr %7, i32 0, i32 2
  %9 = load ptr, ptr %8, align 8
  %10 = getelementptr inbounds %struct.ssl_connect_data, ptr %9, i32 0, i32 5
  call void @llvm.memcpy.p0.p0.i64(ptr align 8 %5, ptr align 8 %10, i64 8, i1 false)
  %11 = load ptr, ptr %4, align 8
  %12 = load ptr, ptr %3, align 8
  %13 = getelementptr inbounds %struct.Curl_cfilter, ptr %12, i32 0, i32 2
  %14 = load ptr, ptr %13, align 8
  %15 = getelementptr inbounds %struct.ssl_connect_data, ptr %14, i32 0, i32 5
  %16 = getelementptr inbounds %struct.cf_call_data, ptr %15, i32 0, i32 0
  store ptr %11, ptr %16, align 8
  br label %17

17:                                               ; preds = %6
  %18 = load ptr, ptr %3, align 8
  %19 = load ptr, ptr %4, align 8
  call void @cf_close(ptr noundef %18, ptr noundef %19)
  %20 = load ptr, ptr %3, align 8
  %21 = getelementptr inbounds %struct.Curl_cfilter, ptr %20, i32 0, i32 1
  %22 = load ptr, ptr %21, align 8
  %23 = icmp ne ptr %22, null
  br i1 %23, label %24, label %36

24:                                               ; preds = %17
  %25 = load ptr, ptr %3, align 8
  %26 = getelementptr inbounds %struct.Curl_cfilter, ptr %25, i32 0, i32 1
  %27 = load ptr, ptr %26, align 8
  %28 = getelementptr inbounds %struct.Curl_cfilter, ptr %27, i32 0, i32 0
  %29 = load ptr, ptr %28, align 8
  %30 = getelementptr inbounds %struct.Curl_cftype, ptr %29, i32 0, i32 5
  %31 = load ptr, ptr %30, align 8
  %32 = load ptr, ptr %3, align 8
  %33 = getelementptr inbounds %struct.Curl_cfilter, ptr %32, i32 0, i32 1
  %34 = load ptr, ptr %33, align 8
  %35 = load ptr, ptr %4, align 8
  call void %31(ptr noundef %34, ptr noundef %35)
  br label %36

36:                                               ; preds = %24, %17
  br label %37

37:                                               ; preds = %36
  %38 = load ptr, ptr %3, align 8
  %39 = getelementptr inbounds %struct.Curl_cfilter, ptr %38, i32 0, i32 2
  %40 = load ptr, ptr %39, align 8
  %41 = getelementptr inbounds %struct.ssl_connect_data, ptr %40, i32 0, i32 5
  call void @llvm.memcpy.p0.p0.i64(ptr align 8 %41, ptr align 8 %5, i64 8, i1 false)
  br label %42

42:                                               ; preds = %37
  ret void
}