; Function Attrs: nounwind uwtable
define internal void @ssl_cf_close(ptr noundef %0, ptr noundef %1) #2 {
  %3 = getelementptr inbounds nuw i8, ptr %0, i64 16
  %4 = load ptr, ptr %3, align 8
  %5 = getelementptr inbounds nuw i8, ptr %4, i64 56
  %.sroa.0.0.copyload = load ptr, ptr %5, align 8
  store ptr %1, ptr %5, align 8
  %6 = load ptr, ptr %3, align 8
  %.not.i = icmp eq ptr %6, null
  br i1 %.not.i, label %cf_close.exit, label %7

7:                                                ; preds = %2
  %8 = load ptr, ptr @Curl_ssl, align 8
  %9 = getelementptr inbounds nuw i8, ptr %8, i64 128
  %10 = load ptr, ptr %9, align 8
  tail call void %10(ptr noundef nonnull %0, ptr noundef %1) #18
  store i32 0, ptr %6, align 8
  %11 = getelementptr inbounds nuw i8, ptr %6, i64 8
  %12 = getelementptr inbounds nuw i8, ptr %6, i64 16
  %13 = load ptr, ptr %12, align 8
  %14 = load ptr, ptr %11, align 8
  %.not.i.i = icmp eq ptr %13, %14
  br i1 %.not.i.i, label %Curl_ssl_peer_cleanup.exit.i, label %15

15:                                               ; preds = %7
  %16 = load ptr, ptr @Curl_cfree, align 8
  tail call void %16(ptr noundef %13) #18
  br label %Curl_ssl_peer_cleanup.exit.i

Curl_ssl_peer_cleanup.exit.i:                     ; preds = %15, %7
  %17 = load ptr, ptr @Curl_cfree, align 8
  %18 = getelementptr inbounds nuw i8, ptr %6, i64 24
  %19 = load ptr, ptr %18, align 8
  tail call void %17(ptr noundef %19) #18
  %20 = load ptr, ptr @Curl_cfree, align 8
  %21 = load ptr, ptr %11, align 8
  tail call void %20(ptr noundef %21) #18
  %22 = getelementptr inbounds nuw i8, ptr %6, i64 32
  tail call void @llvm.memset.p0.i64(ptr noundef nonnull align 8 dereferenceable(24) %11, i8 0, i64 24, i1 false)
  %23 = load i8, ptr %22, align 8
  %24 = and i8 %23, -2
  store i8 %24, ptr %22, align 8
  br label %cf_close.exit

cf_close.exit:                                    ; preds = %2, %Curl_ssl_peer_cleanup.exit.i
  %25 = getelementptr inbounds nuw i8, ptr %0, i64 36
  %26 = load i8, ptr %25, align 4
  %27 = and i8 %26, -2
  store i8 %27, ptr %25, align 4
  %28 = getelementptr inbounds nuw i8, ptr %0, i64 8
  %29 = load ptr, ptr %28, align 8
  %.not = icmp eq ptr %29, null
  br i1 %.not, label %34, label %30

30:                                               ; preds = %cf_close.exit
  %31 = load ptr, ptr %29, align 8
  %32 = getelementptr inbounds nuw i8, ptr %31, i64 32
  %33 = load ptr, ptr %32, align 8
  tail call void %33(ptr noundef nonnull %29, ptr noundef %1) #18
  br label %34

34:                                               ; preds = %cf_close.exit, %30
  %35 = load ptr, ptr %3, align 8
  %36 = getelementptr inbounds nuw i8, ptr %35, i64 56
  store ptr %.sroa.0.0.copyload, ptr %36, align 8
  ret void
}